; Function Attrs: nounwind uwtable
define internal ptr @_io_StringIO_closed_get(ptr noundef readonly captures(none) %0, ptr readnone captures(none) %1) #0 {
  %3 = getelementptr inbounds nuw i8, ptr %0, i64 64
  %4 = load i8, ptr %3, align 8, !tbaa !14
  %5 = icmp slt i8 %4, 1
  br i1 %5, label %6, label %8

6:                                                ; preds = %2
  %7 = load ptr, ptr @PyExc_ValueError, align 8, !tbaa !37
  tail call void @PyErr_SetString(ptr noundef %7, ptr noundef nonnull @.str.2) #6
  br label %_io_StringIO_closed_get_impl.exit

8:                                                ; preds = %2
  %9 = getelementptr inbounds nuw i8, ptr %0, i64 65
  %10 = load i8, ptr %9, align 1, !tbaa !38
  %11 = sext i8 %10 to i64
  %12 = tail call ptr @PyBool_FromLong(i64 noundef %11) #6
  br label %_io_StringIO_closed_get_impl.exit

_io_StringIO_closed_get_impl.exit:                ; preds = %6, %8
  %.0.i = phi ptr [ null, %6 ], [ %12, %8 ]
  ret ptr %.0.i
}